target datalayout = "e-m:e-p270:32:32-p271:32:32-p272:64:64-i64:64-i128:128-f80:128-n8:16:32:64-S128"
target triple = "x86_64-pc-linux-gnu"

%"class.cv::Mat" = type { i32, i32, i32, i32, ptr, ptr, ptr, ptr, ptr, ptr, %"struct.cv::MatSize", %"struct.cv::MatStep" }
%"struct.cv::MatSize" = type { ptr }
%"struct.cv::MatStep" = type { ptr, [2 x i64] }
%"class.cv::ParallelLoopBody" = type { ptr }
%"struct.cv::ximgproc::DisparityWLSFilterImpl::ComputeDepthDisc_ParBody" = type { %"class.cv::ParallelLoopBody", ptr, ptr, ptr, ptr, i32, i32 }

@_ZTVN2cv16ParallelLoopBodyE = available_externally unnamed_addr constant { [5 x ptr] } { [5 x ptr] [ptr null, ptr @_ZTIN2cv16ParallelLoopBodyE, ptr @_ZN2cv16ParallelLoopBodyD1Ev, ptr @_ZN2cv16ParallelLoopBodyD0Ev, ptr @__cxa_pure_virtual] }, align 8

; Function Attrs: inlinehint mustprogress nounwind uwtable
define linkonce_odr hidden void @_ZN2cv16ParallelLoopBodyC2Ev(ptr noundef nonnull align 8 dereferenceable(8) %0) unnamed_addr #6 comdat align 2 {
  %2 = alloca ptr, align 8
  store ptr %0, ptr %2, align 8, !tbaa !129
  %3 = load ptr, ptr %2, align 8
  store ptr getelementptr inbounds inrange(-16, 24) ({ [5 x ptr] }, ptr @_ZTVN2cv16ParallelLoopBodyE, i32 0, i32 0, i32 2), ptr %3, align 8, !tbaa !73
  ret void
}

; Function Attrs: mustprogress nounwind uwtable
define hidden void @_ZN2cv8ximgproc22DisparityWLSFilterImpl24ComputeDepthDisc_ParBodyC2ERS1_RNS_3MatES5_S5_i(ptr noundef nonnull align 8 dereferenceable(48) %0, ptr noundef nonnull align 8 dereferenceable(196) %1, ptr noundef nonnull align 8 dereferenceable(96) %2, ptr noundef nonnull align 8 dereferenceable(96) %3, ptr noundef nonnull align 8 dereferenceable(96) %4, i32 noundef %5) unnamed_addr #8 align 2 {
  %7 = alloca ptr, align 8
  %8 = alloca ptr, align 8
  %9 = alloca ptr, align 8
  %10 = alloca ptr, align 8
  %11 = alloca ptr, align 8
  %12 = alloca i32, align 4
  store ptr %0, ptr %7, align 8, !tbaa !145
  store ptr %1, ptr %8, align 8, !tbaa !3
  store ptr %2, ptr %9, align 8, !tbaa !50
  store ptr %3, ptr %10, align 8, !tbaa !50
  store ptr %4, ptr %11, align 8, !tbaa !50
  store i32 %5, ptr %12, align 4, !tbaa !12
  %13 = load ptr, ptr %7, align 8
  call void @_ZN2cv16ParallelLoopBodyC2Ev(ptr noundef nonnull align 8 dereferenceable(8) %13) #3
  store ptr getelementptr inbounds inrange(-16, 24) ({ [5 x ptr] }, ptr @_ZTVN2cv8ximgproc22DisparityWLSFilterImpl24ComputeDepthDisc_ParBodyE, i32 0, i32 0, i32 2), ptr %13, align 8, !tbaa !73
  %14 = getelementptr inbounds nuw %"struct.cv::ximgproc::DisparityWLSFilterImpl::ComputeDepthDisc_ParBody", ptr %13, i32 0, i32 1
  %15 = load ptr, ptr %8, align 8, !tbaa !3
  store ptr %15, ptr %14, align 8, !tbaa !147
  %16 = getelementptr inbounds nuw %"struct.cv::ximgproc::DisparityWLSFilterImpl::ComputeDepthDisc_ParBody", ptr %13, i32 0, i32 2
  %17 = load ptr, ptr %9, align 8, !tbaa !50
  store ptr %17, ptr %16, align 8, !tbaa !149
  %18 = getelementptr inbounds nuw %"struct.cv::ximgproc::DisparityWLSFilterImpl::ComputeDepthDisc_ParBody", ptr %13, i32 0, i32 3
  %19 = load ptr, ptr %10, align 8, !tbaa !50
  store ptr %19, ptr %18, align 8, !tbaa !150
  %20 = getelementptr inbounds nuw %"struct.cv::ximgproc::DisparityWLSFilterImpl::ComputeDepthDisc_ParBody", ptr %13, i32 0, i32 4
  %21 = load ptr, ptr %11, align 8, !tbaa !50
  store ptr %21, ptr %20, align 8, !tbaa !151
  %22 = getelementptr inbounds nuw %"struct.cv::ximgproc::DisparityWLSFilterImpl::ComputeDepthDisc_ParBody", ptr %13, i32 0, i32 5
  %23 = load i32, ptr %12, align 4, !tbaa !12
  store i32 %23, ptr %22, align 8, !tbaa !152
  %24 = getelementptr inbounds nuw %"struct.cv::ximgproc::DisparityWLSFilterImpl::ComputeDepthDisc_ParBody", ptr %13, i32 0, i32 2
  %25 = load ptr, ptr %24, align 8, !tbaa !149
  %26 = getelementptr inbounds nuw %"class.cv::Mat", ptr %25, i32 0, i32 2
  %27 = load i32, ptr %26, align 8, !tbaa !53
  %28 = sitofp i32 %27 to double
  %29 = getelementptr inbounds nuw %"struct.cv::ximgproc::DisparityWLSFilterImpl::ComputeDepthDisc_ParBody", ptr %13, i32 0, i32 5
  %30 = load i32, ptr %29, align 8, !tbaa !152
  %31 = sitofp i32 %30 to double
  %32 = fdiv double %28, %31
  %33 = call double @llvm.ceil.f64(double %32)
  %34 = fptosi double %33 to i32
  %35 = getelementptr inbounds nuw %"struct.cv::ximgproc::DisparityWLSFilterImpl::ComputeDepthDisc_ParBody", ptr %13, i32 0, i32 6
  store i32 %34, ptr %35, align 4, !tbaa !153
  ret void
}