; Function Attrs: mustprogress nofree norecurse nosync nounwind willreturn memory(argmem: readwrite) uwtable
define hidden void @_ZN2cv8ximgproc22DisparityWLSFilterImpl24ComputeDepthDisc_ParBodyC2ERS1_RNS_3MatES5_S5_i(ptr noundef nonnull writeonly align 8 captures(none) dereferenceable(48) initializes((0, 48)) %0, ptr noundef nonnull align 8 dereferenceable(196) %1, ptr noundef nonnull align 8 dereferenceable(96) %2, ptr noundef nonnull align 8 dereferenceable(96) %3, ptr noundef nonnull align 8 dereferenceable(96) %4, i32 noundef %5) unnamed_addr #12 align 2 {
  store ptr getelementptr inbounds nuw inrange(-16, 24) (i8, ptr @_ZTVN2cv8ximgproc22DisparityWLSFilterImpl24ComputeDepthDisc_ParBodyE, i64 16), ptr %0, align 8, !tbaa !52
  %7 = getelementptr inbounds nuw i8, ptr %0, i64 8
  store ptr %1, ptr %7, align 8, !tbaa !62
  %8 = getelementptr inbounds nuw i8, ptr %0, i64 16
  store ptr %2, ptr %8, align 8, !tbaa !66
  %9 = getelementptr inbounds nuw i8, ptr %0, i64 24
  store ptr %3, ptr %9, align 8, !tbaa !67
  %10 = getelementptr inbounds nuw i8, ptr %0, i64 32
  store ptr %4, ptr %10, align 8, !tbaa !68
  %11 = getelementptr inbounds nuw i8, ptr %0, i64 40
  store i32 %5, ptr %11, align 8, !tbaa !69
  %12 = getelementptr inbounds nuw i8, ptr %2, i64 8
  %13 = load i32, ptr %12, align 8, !tbaa !54
  %14 = sitofp i32 %13 to double
  %15 = sitofp i32 %5 to double
  %16 = fdiv double %14, %15
  %17 = tail call double @llvm.ceil.f64(double %16)
  %18 = fptosi double %17 to i32
  %19 = getelementptr inbounds nuw i8, ptr %0, i64 44
  store i32 %18, ptr %19, align 4, !tbaa !70
  ret void
}